; Function Attrs: mustprogress nofree norecurse nosync nounwind willreturn memory(argmem: read) uwtable
define noundef zeroext i1 @_ZNK3net20QuicUnackedPacketMap15IsPacketUselessEmRKNS_16TransmissionInfoE(ptr noundef nonnull readonly align 8 captures(none) dereferenceable(120) %0, i64 noundef %1, ptr noundef nonnull readonly align 8 captures(none) dereferenceable(80) %2) local_unnamed_addr #7 align 2 {
  %4 = getelementptr inbounds nuw i8, ptr %2, i64 42
  %5 = load i8, ptr %4, align 2, !tbaa !67, !range !94, !noundef !95
  %6 = trunc nuw i8 %5 to i1
  %7 = getelementptr inbounds nuw i8, ptr %0, i64 8
  %8 = load i64, ptr %7, align 8
  %9 = icmp ule i64 %1, %8
  %.not4 = select i1 %6, i1 true, i1 %9
  br i1 %.not4, label %10, label %22

10:                                               ; preds = %3
  %11 = getelementptr inbounds nuw i8, ptr %2, i64 41
  %12 = load i8, ptr %11, align 1, !tbaa !77, !range !94, !noundef !95
  %13 = trunc nuw i8 %12 to i1
  br i1 %13, label %22, label %14

14:                                               ; preds = %10
  %15 = load ptr, ptr %2, align 8, !tbaa !105
  %16 = getelementptr inbounds nuw i8, ptr %2, i64 8
  %17 = load ptr, ptr %16, align 8, !tbaa !105
  %18 = icmp eq ptr %15, %17
  %19 = getelementptr inbounds nuw i8, ptr %2, i64 48
  %20 = load i64, ptr %19, align 8
  %21 = icmp ule i64 %20, %8
  %.not6 = select i1 %18, i1 %21, i1 false
  br label %22

22:                                               ; preds = %14, %10, %3
  %23 = phi i1 [ false, %10 ], [ false, %3 ], [ %.not6, %14 ]
  ret i1 %23
}